; Function Attrs: mustprogress uwtable
define hidden noundef zeroext i1 @_ZN4cvc58internal6theory9datatypes14SygusExtension15computeTopLevelENS0_8TypeNodeENS0_12NodeTemplateILb1EEE(ptr noundef nonnull readnone align 8 captures(none) dereferenceable(1264) %0, ptr noundef readonly captures(none) %1, ptr noundef nonnull %2) local_unnamed_addr #3 align 2 personality ptr @__gxx_personality_v0 {
  %4 = alloca %"class.cvc5::internal::TypeNode", align 8
  %5 = alloca %"class.cvc5::internal::TypeNode", align 8
  %6 = alloca %"class.cvc5::internal::NodeTemplate", align 8
  call void @llvm.lifetime.start.p0(i64 8, ptr nonnull %4) #26
  call void @_ZNK4cvc58internal12NodeTemplateILb1EE7getTypeEb(ptr dead_on_unwind nonnull writable sret(%"class.cvc5::internal::TypeNode") align 8 %4, ptr noundef nonnull align 8 dereferenceable(8) %2, i1 noundef zeroext false)
  %7 = load ptr, ptr %4, align 8, !tbaa !349
  %8 = load ptr, ptr %1, align 8, !tbaa !349
  %9 = icmp eq ptr %7, %8
  %10 = load i64, ptr %7, align 8
  %11 = and i64 %10, 1152920405095219200
  %.not.i.i = icmp eq i64 %11, 1152920405095219200
  br i1 %.not.i.i, label %_ZN4cvc58internal8TypeNodeD2Ev.exit, label %12, !prof !101

12:                                               ; preds = %3
  %13 = add i64 %10, 1152920405095219200
  %14 = and i64 %13, 1152920405095219200
  %15 = and i64 %10, -1152920405095219201
  %16 = or disjoint i64 %14, %15
  store i64 %16, ptr %7, align 8
  %17 = icmp eq i64 %14, 0
  br i1 %17, label %18, label %_ZN4cvc58internal8TypeNodeD2Ev.exit, !prof !101

18:                                               ; preds = %12
  invoke void @_ZN4cvc58internal4expr9NodeValue15markForDeletionEv(ptr noundef nonnull align 8 dereferenceable(24) %7)
          to label %_ZN4cvc58internal8TypeNodeD2Ev.exit unwind label %19

19:                                               ; preds = %18
  %20 = landingpad { ptr, i32 }
          catch ptr null
  %21 = extractvalue { ptr, i32 } %20, 0
  call void @__clang_call_terminate(ptr %21) #27
  unreachable

_ZN4cvc58internal8TypeNodeD2Ev.exit:              ; preds = %3, %12, %18
  call void @llvm.lifetime.end.p0(i64 8, ptr nonnull %4) #26
  br i1 %9, label %_ZN4cvc58internal8TypeNodeD2Ev.exit9, label %22

22:                                               ; preds = %_ZN4cvc58internal8TypeNodeD2Ev.exit
  %23 = load ptr, ptr %2, align 8, !tbaa !89
  %24 = getelementptr inbounds nuw i8, ptr %23, i64 8
  %25 = load i64, ptr %24, align 8
  %26 = and i64 %25, 1023
  %27 = icmp eq i64 %26, 225
  br i1 %27, label %28, label %_ZN4cvc58internal8TypeNodeD2Ev.exit9

28:                                               ; preds = %22
  %29 = load ptr, ptr %1, align 8, !tbaa !349
  store ptr %29, ptr %5, align 8, !tbaa !349
  %30 = load i64, ptr %29, align 8
  %31 = lshr i64 %30, 40
  %32 = trunc nuw nsw i64 %31 to i32
  %33 = and i32 %32, 1048575
  %34 = icmp samesign ult i32 %33, 1048574
  br i1 %34, label %35, label %40, !prof !102

35:                                               ; preds = %28
  %36 = add i64 %30, 1099511627776
  %37 = and i64 %36, 1152920405095219200
  %38 = and i64 %30, -1152920405095219201
  %39 = or disjoint i64 %37, %38
  store i64 %39, ptr %29, align 8
  br label %_ZN4cvc58internal8TypeNodeC2ERKS1_.exit

40:                                               ; preds = %28
  %41 = icmp eq i32 %33, 1048574
  br i1 %41, label %42, label %_ZN4cvc58internal8TypeNodeC2ERKS1_.exit, !prof !101

42:                                               ; preds = %40
  %43 = or i64 %30, 1152920405095219200
  store i64 %43, ptr %29, align 8
  call void @_ZN4cvc58internal4expr9NodeValue20markRefCountMaxedOutEv(ptr noundef nonnull align 8 dereferenceable(24) %29)
  br label %_ZN4cvc58internal8TypeNodeC2ERKS1_.exit

_ZN4cvc58internal8TypeNodeC2ERKS1_.exit:          ; preds = %35, %40, %42
  call void @llvm.experimental.noalias.scope.decl(metadata !511)
  %44 = load ptr, ptr %2, align 8, !tbaa !89, !noalias !511
  %45 = getelementptr inbounds nuw i8, ptr %44, i64 8
  %46 = load i64, ptr %45, align 8, !noalias !511
  %47 = trunc i64 %46 to i32
  %48 = and i32 %47, 1023
  %49 = icmp eq i32 %48, 1023
  %50 = select i1 %49, i32 -1, i32 %48
  %51 = invoke noundef i32 @_ZN4cvc58internal4kind10metaKindOfENS1_6Kind_tE(i32 noundef %50)
          to label %.noexc unwind label %98

.noexc:                                           ; preds = %_ZN4cvc58internal8TypeNodeC2ERKS1_.exit
  %52 = icmp eq i32 %51, 2
  %53 = getelementptr inbounds nuw i8, ptr %44, i64 24
  %54 = zext i1 %52 to i64
  %55 = getelementptr inbounds nuw [0 x ptr], ptr %53, i64 0, i64 %54
  %56 = load ptr, ptr %55, align 8, !tbaa !88, !noalias !511
  store ptr %56, ptr %6, align 8, !tbaa !89, !alias.scope !511
  %57 = load i64, ptr %56, align 8, !noalias !511
  %58 = lshr i64 %57, 40
  %59 = trunc nuw nsw i64 %58 to i32
  %60 = and i32 %59, 1048575
  %61 = icmp samesign ult i32 %60, 1048574
  br i1 %61, label %62, label %67, !prof !102

62:                                               ; preds = %.noexc
  %63 = add i64 %57, 1099511627776
  %64 = and i64 %63, 1152920405095219200
  %65 = and i64 %57, -1152920405095219201
  %66 = or disjoint i64 %64, %65
  store i64 %66, ptr %56, align 8, !noalias !511
  br label %_ZNK4cvc58internal12NodeTemplateILb1EEixEi.exit

67:                                               ; preds = %.noexc
  %68 = icmp eq i32 %60, 1048574
  br i1 %68, label %69, label %_ZNK4cvc58internal12NodeTemplateILb1EEixEi.exit, !prof !101

69:                                               ; preds = %67
  %70 = or i64 %57, 1152920405095219200
  store i64 %70, ptr %56, align 8, !noalias !511
  invoke void @_ZN4cvc58internal4expr9NodeValue20markRefCountMaxedOutEv(ptr noundef nonnull align 8 dereferenceable(24) %56)
          to label %_ZNK4cvc58internal12NodeTemplateILb1EEixEi.exit unwind label %98

_ZNK4cvc58internal12NodeTemplateILb1EEixEi.exit:  ; preds = %67, %62, %69
  %71 = invoke noundef zeroext i1 @_ZN4cvc58internal6theory9datatypes14SygusExtension15computeTopLevelENS0_8TypeNodeENS0_12NodeTemplateILb1EEE(ptr noundef nonnull align 8 dereferenceable(1264) %0, ptr noundef nonnull %5, ptr noundef nonnull %6)
          to label %72 unwind label %100

72:                                               ; preds = %_ZNK4cvc58internal12NodeTemplateILb1EEixEi.exit
  %73 = load ptr, ptr %6, align 8, !tbaa !89
  %74 = load i64, ptr %73, align 8
  %75 = and i64 %74, 1152920405095219200
  %.not.i.i7 = icmp eq i64 %75, 1152920405095219200
  br i1 %.not.i.i7, label %_ZN4cvc58internal12NodeTemplateILb1EED2Ev.exit, label %76, !prof !101

76:                                               ; preds = %72
  %77 = add i64 %74, 1152920405095219200
  %78 = and i64 %77, 1152920405095219200
  %79 = and i64 %74, -1152920405095219201
  %80 = or disjoint i64 %78, %79
  store i64 %80, ptr %73, align 8
  %81 = icmp eq i64 %78, 0
  br i1 %81, label %82, label %_ZN4cvc58internal12NodeTemplateILb1EED2Ev.exit, !prof !101

82:                                               ; preds = %76
  invoke void @_ZN4cvc58internal4expr9NodeValue15markForDeletionEv(ptr noundef nonnull align 8 dereferenceable(24) %73)
          to label %_ZN4cvc58internal12NodeTemplateILb1EED2Ev.exit unwind label %83

83:                                               ; preds = %82
  %84 = landingpad { ptr, i32 }
          catch ptr null
  %85 = extractvalue { ptr, i32 } %84, 0
  call void @__clang_call_terminate(ptr %85) #27
  unreachable

_ZN4cvc58internal12NodeTemplateILb1EED2Ev.exit:   ; preds = %72, %76, %82
  %86 = load i64, ptr %29, align 8
  %87 = and i64 %86, 1152920405095219200
  %.not.i.i8 = icmp eq i64 %87, 1152920405095219200
  br i1 %.not.i.i8, label %_ZN4cvc58internal8TypeNodeD2Ev.exit9, label %88, !prof !101

88:                                               ; preds = %_ZN4cvc58internal12NodeTemplateILb1EED2Ev.exit
  %89 = add i64 %86, 1152920405095219200
  %90 = and i64 %89, 1152920405095219200
  %91 = and i64 %86, -1152920405095219201
  %92 = or disjoint i64 %90, %91
  store i64 %92, ptr %29, align 8
  %93 = icmp eq i64 %90, 0
  br i1 %93, label %94, label %_ZN4cvc58internal8TypeNodeD2Ev.exit9, !prof !101

94:                                               ; preds = %88
  invoke void @_ZN4cvc58internal4expr9NodeValue15markForDeletionEv(ptr noundef nonnull align 8 dereferenceable(24) %29)
          to label %_ZN4cvc58internal8TypeNodeD2Ev.exit9 unwind label %95

95:                                               ; preds = %94
  %96 = landingpad { ptr, i32 }
          catch ptr null
  %97 = extractvalue { ptr, i32 } %96, 0
  call void @__clang_call_terminate(ptr %97) #27
  unreachable

98:                                               ; preds = %69, %_ZN4cvc58internal8TypeNodeC2ERKS1_.exit
  %99 = landingpad { ptr, i32 }
          cleanup
  br label %102

100:                                              ; preds = %_ZNK4cvc58internal12NodeTemplateILb1EEixEi.exit
  %101 = landingpad { ptr, i32 }
          cleanup
  call void @_ZN4cvc58internal12NodeTemplateILb1EED2Ev(ptr noundef nonnull align 8 dereferenceable(8) %6) #26
  br label %102

102:                                              ; preds = %100, %98
  %.pn = phi { ptr, i32 } [ %101, %100 ], [ %99, %98 ]
  call void @_ZN4cvc58internal8TypeNodeD2Ev(ptr noundef nonnull align 8 dereferenceable(8) %5) #26
  resume { ptr, i32 } %.pn

_ZN4cvc58internal8TypeNodeD2Ev.exit9:             ; preds = %94, %88, %_ZN4cvc58internal12NodeTemplateILb1EED2Ev.exit, %22, %_ZN4cvc58internal8TypeNodeD2Ev.exit
  %.04 = phi i1 [ false, %_ZN4cvc58internal8TypeNodeD2Ev.exit ], [ true, %22 ], [ %71, %_ZN4cvc58internal12NodeTemplateILb1EED2Ev.exit ], [ %71, %88 ], [ %71, %94 ]
  ret i1 %.04
}